; Function Attrs: mustprogress nofree norecurse nosync nounwind sspstrong willreturn memory(argmem: read) uwtable
define internal range(i32 -1, 2) i32 @dcmp(ptr noundef readonly captures(none) %0, ptr noundef readonly captures(none) %1) #8 {
  %3 = getelementptr inbounds nuw i8, ptr %0, i64 24
  %4 = load i64, ptr %3, align 8
  %5 = getelementptr inbounds nuw i8, ptr %1, i64 24
  %6 = load i64, ptr %5, align 8
  %7 = icmp ult i64 %4, %6
  %8 = select i1 %7, i32 1, i32 -1
  ret i32 %8
}